target datalayout = "e-m:e-p270:32:32-p271:32:32-p272:64:64-i64:64-i128:128-f80:128-n8:16:32:64-S128"
target triple = "x86_64-pc-linux-gnu"

%struct._psqlSettings = type { ptr, i32, ptr, i8, ptr, ptr, %struct.printQueryOpt, ptr, ptr, ptr, i8, i8, i32, i32, ptr, ptr, i8, [4 x ptr], i8, i32, ptr, i8, i32, ptr, ptr, i64, i64, i8, ptr, ptr, ptr, i8, i8, i8, i8, i8, i8, i8, i32, i32, i32, i32, i32, i32, i32, i32, ptr, ptr, ptr, i32, i8, i32 }
%struct.printQueryOpt = type { %struct.printTableOpt, ptr, ptr, ptr, i8, ptr, i32 }
%struct.printTableOpt = type { i32, i16, i32, i32, i16, i16, i32, i8, i8, i8, i8, i64, ptr, %struct.separator, %struct.separator, [2 x i8], i8, ptr, i32, i32, i32, i32, i32, i32 }
%struct.separator = type { ptr, i8 }
%struct.PQExpBufferData = type { ptr, i64, i64 }

@pset = external global %struct._psqlSettings, align 8
@.str.23 = private unnamed_addr constant [12 x i8] c"ORDER BY 1;\00", align 1
@cancel_pressed = external global i32, align 4
@.str.501 = private unnamed_addr constant [10 x i8] c"e.extname\00", align 1
@.str.503 = private unnamed_addr constant [56 x i8] c"SELECT e.extname, e.oid\0AFROM pg_catalog.pg_extension e\0A\00", align 1
@.str.504 = private unnamed_addr constant [39 x i8] c"Did not find any extension named \22%s\22.\00", align 1
@.str.505 = private unnamed_addr constant [29 x i8] c"Did not find any extensions.\00", align 1
@.str.909 = private unnamed_addr constant [206 x i8] c"SELECT pg_catalog.pg_describe_object(classid, objid, 0) AS \22%s\22\0AFROM pg_catalog.pg_depend\0AWHERE refclassid = 'pg_catalog.pg_extension'::pg_catalog.regclass AND refobjid = '%s' AND deptype = 'e'\0AORDER BY 1;\00", align 1
@.str.910 = private unnamed_addr constant [19 x i8] c"Object description\00", align 1
@.str.911 = private unnamed_addr constant [26 x i8] c"Objects in extension \22%s\22\00", align 1
@.str.912 = private unnamed_addr constant [52 x i8] c"improper qualified name (too many dotted names): %s\00", align 1
@.str.913 = private unnamed_addr constant [47 x i8] c"You are currently not connected to a database.\00", align 1
@.str.914 = private unnamed_addr constant [50 x i8] c"cross-database references are not implemented: %s\00", align 1

; Function Attrs: nounwind uwtable
define internal zeroext i1 @listOneExtensionContents(ptr noundef %0, ptr noundef %1) #0 {
  %3 = alloca i1, align 1
  %4 = alloca ptr, align 8
  %5 = alloca ptr, align 8
  %6 = alloca %struct.PQExpBufferData, align 8
  %7 = alloca ptr, align 8
  %8 = alloca %struct.PQExpBufferData, align 8
  %9 = alloca %struct.printQueryOpt, align 8
  %10 = alloca i32, align 4
  store ptr %0, ptr %4, align 8
  store ptr %1, ptr %5, align 8
  call void @llvm.lifetime.start.p0(i64 24, ptr %6) #8
  call void @llvm.lifetime.start.p0(i64 8, ptr %7) #8
  call void @llvm.lifetime.start.p0(i64 24, ptr %8) #8
  call void @llvm.lifetime.start.p0(i64 168, ptr %9) #8
  call void @llvm.memcpy.p0.p0.i64(ptr align 8 %9, ptr align 8 getelementptr inbounds nuw (%struct._psqlSettings, ptr @pset, i32 0, i32 6), i64 168, i1 false)
  call void @initPQExpBuffer(ptr noundef %6)
  %11 = load ptr, ptr %5, align 8
  call void (ptr, ptr, ...) @printfPQExpBuffer(ptr noundef %6, ptr noundef @.str.909, ptr noundef @.str.910, ptr noundef %11)
  %12 = getelementptr inbounds nuw %struct.PQExpBufferData, ptr %6, i32 0, i32 0
  %13 = load ptr, ptr %12, align 8
  %14 = call ptr @PSQLexec(ptr noundef %13)
  store ptr %14, ptr %7, align 8
  call void @termPQExpBuffer(ptr noundef %6)
  %15 = load ptr, ptr %7, align 8
  %16 = icmp ne ptr %15, null
  br i1 %16, label %18, label %17

17:                                               ; preds = %2
  store i1 false, ptr %3, align 1
  store i32 1, ptr %10, align 4
  br label %28

18:                                               ; preds = %2
  call void @initPQExpBuffer(ptr noundef %8)
  %19 = load ptr, ptr %4, align 8
  call void (ptr, ptr, ...) @printfPQExpBuffer(ptr noundef %8, ptr noundef @.str.911, ptr noundef %19)
  %20 = getelementptr inbounds nuw %struct.PQExpBufferData, ptr %8, i32 0, i32 0
  %21 = load ptr, ptr %20, align 8
  %22 = getelementptr inbounds nuw %struct.printQueryOpt, ptr %9, i32 0, i32 2
  store ptr %21, ptr %22, align 8
  %23 = getelementptr inbounds nuw %struct.printQueryOpt, ptr %9, i32 0, i32 4
  store i8 1, ptr %23, align 8
  %24 = load ptr, ptr %7, align 8
  %25 = load ptr, ptr getelementptr inbounds nuw (%struct._psqlSettings, ptr @pset, i32 0, i32 2), align 8
  %26 = load ptr, ptr getelementptr inbounds nuw (%struct._psqlSettings, ptr @pset, i32 0, i32 28), align 8
  call void @printQuery(ptr noundef %24, ptr noundef %9, ptr noundef %25, i1 noundef zeroext false, ptr noundef %26)
  call void @termPQExpBuffer(ptr noundef %8)
  %27 = load ptr, ptr %7, align 8
  call void @PQclear(ptr noundef %27)
  store i1 true, ptr %3, align 1
  store i32 1, ptr %10, align 4
  br label %28

28:                                               ; preds = %18, %17
  call void @llvm.lifetime.end.p0(i64 168, ptr %9) #8
  call void @llvm.lifetime.end.p0(i64 24, ptr %8) #8
  call void @llvm.lifetime.end.p0(i64 8, ptr %7) #8
  call void @llvm.lifetime.end.p0(i64 24, ptr %6) #8
  %29 = load i1, ptr %3, align 1
  ret i1 %29
}

; Function Attrs: nounwind uwtable
define internal zeroext i1 @validateSQLNamePattern(ptr noundef %0, ptr noundef %1, i1 noundef zeroext %2, i1 noundef zeroext %3, ptr noundef %4, ptr noundef %5, ptr noundef %6, ptr noundef %7, ptr noundef %8, i32 noundef %9) #0 {
  %11 = alloca i1, align 1
  %12 = alloca ptr, align 8
  %13 = alloca ptr, align 8
  %14 = alloca i8, align 1
  %15 = alloca i8, align 1
  %16 = alloca ptr, align 8
  %17 = alloca ptr, align 8
  %18 = alloca ptr, align 8
  %19 = alloca ptr, align 8
  %20 = alloca ptr, align 8
  %21 = alloca i32, align 4
  %22 = alloca %struct.PQExpBufferData, align 8
  %23 = alloca i32, align 4
  %24 = alloca i8, align 1
  %25 = alloca i32, align 4
  store ptr %0, ptr %12, align 8
  store ptr %1, ptr %13, align 8
  %26 = zext i1 %2 to i8
  store i8 %26, ptr %14, align 1
  %27 = zext i1 %3 to i8
  store i8 %27, ptr %15, align 1
  store ptr %4, ptr %16, align 8
  store ptr %5, ptr %17, align 8
  store ptr %6, ptr %18, align 8
  store ptr %7, ptr %19, align 8
  store ptr %8, ptr %20, align 8
  store i32 %9, ptr %21, align 4
  call void @llvm.lifetime.start.p0(i64 24, ptr %22) #8
  call void @llvm.lifetime.start.p0(i64 4, ptr %23) #8
  call void @llvm.lifetime.start.p0(i64 1, ptr %24) #8
  call void @initPQExpBuffer(ptr noundef %22)
  %28 = load ptr, ptr @pset, align 8
  %29 = load ptr, ptr %12, align 8
  %30 = load ptr, ptr %13, align 8
  %31 = load i8, ptr %14, align 1, !range !4, !noundef !5
  %32 = trunc i8 %31 to i1
  %33 = load i8, ptr %15, align 1, !range !4, !noundef !5
  %34 = trunc i8 %33 to i1
  %35 = load ptr, ptr %16, align 8
  %36 = load ptr, ptr %17, align 8
  %37 = load ptr, ptr %18, align 8
  %38 = load ptr, ptr %19, align 8
  %39 = call zeroext i1 @processSQLNamePattern(ptr noundef %28, ptr noundef %29, ptr noundef %30, i1 noundef zeroext %32, i1 noundef zeroext %34, ptr noundef %35, ptr noundef %36, ptr noundef %37, ptr noundef %38, ptr noundef %22, ptr noundef %23)
  %40 = zext i1 %39 to i8
  store i8 %40, ptr %24, align 1
  %41 = load ptr, ptr %20, align 8
  %42 = icmp ne ptr %41, null
  br i1 %42, label %43, label %48

43:                                               ; preds = %10
  %44 = load i8, ptr %24, align 1, !range !4, !noundef !5
  %45 = trunc i8 %44 to i1
  %46 = load ptr, ptr %20, align 8
  %47 = zext i1 %45 to i8
  store i8 %47, ptr %46, align 1
  br label %48

48:                                               ; preds = %43, %10
  %49 = load i32, ptr %23, align 4
  %50 = load i32, ptr %21, align 4
  %51 = icmp sge i32 %49, %50
  br i1 %51, label %52, label %54

52:                                               ; preds = %48
  %53 = load ptr, ptr %13, align 8
  call void (i32, i32, ptr, ...) @pg_log_generic(i32 noundef 4, i32 noundef 0, ptr noundef @.str.912, ptr noundef %53)
  br label %78

54:                                               ; preds = %48
  %55 = load i32, ptr %21, align 4
  %56 = icmp sgt i32 %55, 1
  br i1 %56, label %57, label %77

57:                                               ; preds = %54
  %58 = load i32, ptr %23, align 4
  %59 = load i32, ptr %21, align 4
  %60 = sub i32 %59, 1
  %61 = icmp eq i32 %58, %60
  br i1 %61, label %62, label %77

62:                                               ; preds = %57
  %63 = load ptr, ptr @pset, align 8
  %64 = call ptr @PQdb(ptr noundef %63)
  %65 = icmp eq ptr %64, null
  br i1 %65, label %66, label %67

66:                                               ; preds = %62
  call void (i32, i32, ptr, ...) @pg_log_generic(i32 noundef 4, i32 noundef 0, ptr noundef @.str.913)
  br label %78

67:                                               ; preds = %62
  %68 = load ptr, ptr @pset, align 8
  %69 = call ptr @PQdb(ptr noundef %68)
  %70 = getelementptr inbounds nuw %struct.PQExpBufferData, ptr %22, i32 0, i32 0
  %71 = load ptr, ptr %70, align 8
  %72 = call i32 @strcmp(ptr noundef %69, ptr noundef %71) #9
  %73 = icmp ne i32 %72, 0
  br i1 %73, label %74, label %76

74:                                               ; preds = %67
  %75 = load ptr, ptr %13, align 8
  call void (i32, i32, ptr, ...) @pg_log_generic(i32 noundef 4, i32 noundef 0, ptr noundef @.str.914, ptr noundef %75)
  br label %78

76:                                               ; preds = %67
  br label %77

77:                                               ; preds = %76, %57, %54
  call void @termPQExpBuffer(ptr noundef %22)
  store i1 true, ptr %11, align 1
  store i32 1, ptr %25, align 4
  br label %79

78:                                               ; preds = %74, %66, %52
  call void @termPQExpBuffer(ptr noundef %22)
  store i1 false, ptr %11, align 1
  store i32 1, ptr %25, align 4
  br label %79

79:                                               ; preds = %78, %77
  call void @llvm.lifetime.end.p0(i64 1, ptr %24) #8
  call void @llvm.lifetime.end.p0(i64 4, ptr %23) #8
  call void @llvm.lifetime.end.p0(i64 24, ptr %22) #8
  %80 = load i1, ptr %11, align 1
  ret i1 %80
}

; Function Attrs: nounwind uwtable
define dso_local zeroext i1 @listExtensionContents(ptr noundef %0) #0 {
  %2 = alloca i1, align 1
  %3 = alloca ptr, align 8
  %4 = alloca %struct.PQExpBufferData, align 8
  %5 = alloca ptr, align 8
  %6 = alloca i32, align 4
  %7 = alloca i32, align 4
  %8 = alloca ptr, align 8
  %9 = alloca ptr, align 8
  store ptr %0, ptr %3, align 8
  call void @llvm.lifetime.start.p0(i64 24, ptr %4) #8
  call void @llvm.lifetime.start.p0(i64 8, ptr %5) #8
  call void @llvm.lifetime.start.p0(i64 4, ptr %6) #8
  call void @initPQExpBuffer(ptr noundef %4)
  call void (ptr, ptr, ...) @printfPQExpBuffer(ptr noundef %4, ptr noundef @.str.503)
  %10 = load ptr, ptr %3, align 8
  %11 = call zeroext i1 @validateSQLNamePattern(ptr noundef %4, ptr noundef %10, i1 noundef zeroext false, i1 noundef zeroext false, ptr noundef null, ptr noundef @.str.501, ptr noundef null, ptr noundef null, ptr noundef null, i32 noundef 1)
  br i1 %11, label %13, label %12

12:                                               ; preds = %1
  call void @termPQExpBuffer(ptr noundef %4)
  store i1 false, ptr %2, align 1
  store i32 1, ptr %7, align 4
  br label %68

13:                                               ; preds = %1
  call void @appendPQExpBufferStr(ptr noundef %4, ptr noundef @.str.23)
  %14 = getelementptr inbounds nuw %struct.PQExpBufferData, ptr %4, i32 0, i32 0
  %15 = load ptr, ptr %14, align 8
  %16 = call ptr @PSQLexec(ptr noundef %15)
  store ptr %16, ptr %5, align 8
  call void @termPQExpBuffer(ptr noundef %4)
  %17 = load ptr, ptr %5, align 8
  %18 = icmp ne ptr %17, null
  br i1 %18, label %20, label %19

19:                                               ; preds = %13
  store i1 false, ptr %2, align 1
  store i32 1, ptr %7, align 4
  br label %68

20:                                               ; preds = %13
  %21 = load ptr, ptr %5, align 8
  %22 = call i32 @PQntuples(ptr noundef %21)
  %23 = icmp eq i32 %22, 0
  br i1 %23, label %24, label %36

24:                                               ; preds = %20
  %25 = load i8, ptr getelementptr inbounds nuw (%struct._psqlSettings, ptr @pset, i32 0, i32 33), align 2, !range !4, !noundef !5
  %26 = trunc i8 %25 to i1
  br i1 %26, label %34, label %27

27:                                               ; preds = %24
  %28 = load ptr, ptr %3, align 8
  %29 = icmp ne ptr %28, null
  br i1 %29, label %30, label %32

30:                                               ; preds = %27
  %31 = load ptr, ptr %3, align 8
  call void (i32, i32, ptr, ...) @pg_log_generic(i32 noundef 4, i32 noundef 0, ptr noundef @.str.504, ptr noundef %31)
  br label %33

32:                                               ; preds = %27
  call void (i32, i32, ptr, ...) @pg_log_generic(i32 noundef 4, i32 noundef 0, ptr noundef @.str.505)
  br label %33

33:                                               ; preds = %32, %30
  br label %34

34:                                               ; preds = %33, %24
  %35 = load ptr, ptr %5, align 8
  call void @PQclear(ptr noundef %35)
  store i1 false, ptr %2, align 1
  store i32 1, ptr %7, align 4
  br label %68

36:                                               ; preds = %20
  store i32 0, ptr %6, align 4
  br label %37

37:                                               ; preds = %63, %36
  %38 = load i32, ptr %6, align 4
  %39 = load ptr, ptr %5, align 8
  %40 = call i32 @PQntuples(ptr noundef %39)
  %41 = icmp slt i32 %38, %40
  br i1 %41, label %42, label %66

42:                                               ; preds = %37
  call void @llvm.lifetime.start.p0(i64 8, ptr %8) #8
  call void @llvm.lifetime.start.p0(i64 8, ptr %9) #8
  %43 = load ptr, ptr %5, align 8
  %44 = load i32, ptr %6, align 4
  %45 = call ptr @PQgetvalue(ptr noundef %43, i32 noundef %44, i32 noundef 0)
  store ptr %45, ptr %8, align 8
  %46 = load ptr, ptr %5, align 8
  %47 = load i32, ptr %6, align 4
  %48 = call ptr @PQgetvalue(ptr noundef %46, i32 noundef %47, i32 noundef 1)
  store ptr %48, ptr %9, align 8
  %49 = load ptr, ptr %8, align 8
  %50 = load ptr, ptr %9, align 8
  %51 = call zeroext i1 @listOneExtensionContents(ptr noundef %49, ptr noundef %50)
  br i1 %51, label %54, label %52

52:                                               ; preds = %42
  %53 = load ptr, ptr %5, align 8
  call void @PQclear(ptr noundef %53)
  store i1 false, ptr %2, align 1
  store i32 1, ptr %7, align 4
  br label %60

54:                                               ; preds = %42
  %55 = load volatile i32, ptr @cancel_pressed, align 4
  %56 = icmp ne i32 %55, 0
  br i1 %56, label %57, label %59

57:                                               ; preds = %54
  %58 = load ptr, ptr %5, align 8
  call void @PQclear(ptr noundef %58)
  store i1 false, ptr %2, align 1
  store i32 1, ptr %7, align 4
  br label %60

59:                                               ; preds = %54
  store i32 0, ptr %7, align 4
  br label %60

60:                                               ; preds = %59, %57, %52
  call void @llvm.lifetime.end.p0(i64 8, ptr %9) #8
  call void @llvm.lifetime.end.p0(i64 8, ptr %8) #8
  %61 = load i32, ptr %7, align 4
  switch i32 %61, label %68 [
    i32 0, label %62
  ]

62:                                               ; preds = %60
  br label %63

63:                                               ; preds = %62
  %64 = load i32, ptr %6, align 4
  %65 = add i32 %64, 1
  store i32 %65, ptr %6, align 4
  br label %37, !llvm.loop !36

66:                                               ; preds = %37
  %67 = load ptr, ptr %5, align 8
  call void @PQclear(ptr noundef %67)
  store i1 true, ptr %2, align 1
  store i32 1, ptr %7, align 4
  br label %68

68:                                               ; preds = %66, %60, %34, %19, %12
  call void @llvm.lifetime.end.p0(i64 4, ptr %6) #8
  call void @llvm.lifetime.end.p0(i64 8, ptr %5) #8
  call void @llvm.lifetime.end.p0(i64 24, ptr %4) #8
  %69 = load i1, ptr %2, align 1
  ret i1 %69
}