; Function Attrs: nounwind uwtable
define dso_local noundef zeroext i1 @listExtensionContents(ptr noundef %0) local_unnamed_addr #0 {
  %2 = alloca %struct.PQExpBufferData, align 8
  %3 = alloca %struct.PQExpBufferData, align 8
  %4 = alloca %struct.printQueryOpt, align 8
  %5 = alloca %struct.PQExpBufferData, align 8
  %6 = alloca i32, align 4
  %7 = alloca %struct.PQExpBufferData, align 8
  call void @llvm.lifetime.start.p0(i64 24, ptr nonnull %7) #8
  call void @initPQExpBuffer(ptr noundef nonnull %7) #8
  call void (ptr, ptr, ...) @printfPQExpBuffer(ptr noundef nonnull %7, ptr noundef nonnull @.str.503) #8
  call void @llvm.lifetime.start.p0(i64 24, ptr nonnull %5) #8
  call void @llvm.lifetime.start.p0(i64 4, ptr nonnull %6) #8
  call void @initPQExpBuffer(ptr noundef nonnull %5) #8
  %8 = load ptr, ptr @pset, align 8
  %9 = call zeroext i1 @processSQLNamePattern(ptr noundef %8, ptr noundef nonnull %7, ptr noundef %0, i1 noundef zeroext false, i1 noundef zeroext false, ptr noundef null, ptr noundef nonnull @.str.501, ptr noundef null, ptr noundef null, ptr noundef nonnull %5, ptr noundef nonnull %6) #8
  %10 = load i32, ptr %6, align 4
  %.not19.i = icmp slt i32 %10, 1
  br i1 %.not19.i, label %12, label %11

11:                                               ; preds = %1
  call void (i32, i32, ptr, ...) @pg_log_generic(i32 noundef 4, i32 noundef 0, ptr noundef nonnull @.str.912, ptr noundef %0) #8
  call void @termPQExpBuffer(ptr noundef nonnull %5) #8
  call void @llvm.lifetime.end.p0(i64 4, ptr nonnull %6) #8
  call void @llvm.lifetime.end.p0(i64 24, ptr nonnull %5) #8
  call void @termPQExpBuffer(ptr noundef nonnull %7) #8
  br label %.critedge

12:                                               ; preds = %1
  call void @termPQExpBuffer(ptr noundef nonnull %5) #8
  call void @llvm.lifetime.end.p0(i64 4, ptr nonnull %6) #8
  call void @llvm.lifetime.end.p0(i64 24, ptr nonnull %5) #8
  call void @appendPQExpBufferStr(ptr noundef nonnull %7, ptr noundef nonnull @.str.23) #8
  %13 = load ptr, ptr %7, align 8
  %14 = call ptr @PSQLexec(ptr noundef %13) #8
  call void @termPQExpBuffer(ptr noundef nonnull %7) #8
  %.not = icmp eq ptr %14, null
  br i1 %.not, label %.critedge, label %15

15:                                               ; preds = %12
  %16 = call i32 @PQntuples(ptr noundef nonnull %14) #8
  %17 = icmp eq i32 %16, 0
  br i1 %17, label %22, label %.preheader

.preheader:                                       ; preds = %15
  %18 = call i32 @PQntuples(ptr noundef nonnull %14) #8
  %19 = icmp sgt i32 %18, 0
  br i1 %19, label %.lr.ph, label %._crit_edge

.lr.ph:                                           ; preds = %.preheader
  %20 = getelementptr inbounds nuw i8, ptr %4, i64 128
  %21 = getelementptr inbounds nuw i8, ptr %4, i64 144
  br label %33

22:                                               ; preds = %15
  %23 = load i8, ptr getelementptr inbounds nuw (i8, ptr @pset, i64 402), align 2, !range !9, !noundef !10
  %24 = trunc nuw i8 %23 to i1
  br i1 %24, label %28, label %25

25:                                               ; preds = %22
  %.not24 = icmp eq ptr %0, null
  br i1 %.not24, label %27, label %26

26:                                               ; preds = %25
  call void (i32, i32, ptr, ...) @pg_log_generic(i32 noundef 4, i32 noundef 0, ptr noundef nonnull @.str.504, ptr noundef nonnull %0) #8
  br label %28

27:                                               ; preds = %25
  call void (i32, i32, ptr, ...) @pg_log_generic(i32 noundef 4, i32 noundef 0, ptr noundef nonnull @.str.505) #8
  br label %28

28:                                               ; preds = %26, %27, %22
  call void @PQclear(ptr noundef nonnull %14) #8
  br label %.critedge

29:                                               ; preds = %39
  %30 = add nuw nsw i32 %.01926, 1
  %31 = call i32 @PQntuples(ptr noundef nonnull %14) #8
  %32 = icmp slt i32 %30, %31
  br i1 %32, label %33, label %._crit_edge, !llvm.loop !36

33:                                               ; preds = %.lr.ph, %29
  %.01926 = phi i32 [ 0, %.lr.ph ], [ %30, %29 ]
  %34 = call ptr @PQgetvalue(ptr noundef nonnull %14, i32 noundef %.01926, i32 noundef 0) #8
  %35 = call ptr @PQgetvalue(ptr noundef nonnull %14, i32 noundef %.01926, i32 noundef 1) #8
  call void @llvm.lifetime.start.p0(i64 24, ptr nonnull %2) #8
  call void @llvm.lifetime.start.p0(i64 24, ptr nonnull %3) #8
  call void @llvm.lifetime.start.p0(i64 168, ptr nonnull %4) #8
  call void @llvm.memcpy.p0.p0.i64(ptr noundef nonnull align 8 dereferenceable(168) %4, ptr noundef nonnull align 8 dereferenceable(168) getelementptr inbounds nuw (i8, ptr @pset, i64 48), i64 168, i1 false)
  call void @initPQExpBuffer(ptr noundef nonnull %2) #8
  call void (ptr, ptr, ...) @printfPQExpBuffer(ptr noundef nonnull %2, ptr noundef nonnull @.str.909, ptr noundef nonnull @.str.910, ptr noundef %35) #8
  %36 = load ptr, ptr %2, align 8
  %37 = call ptr @PSQLexec(ptr noundef %36) #8
  call void @termPQExpBuffer(ptr noundef nonnull %2) #8
  %.not.i.not = icmp eq ptr %37, null
  br i1 %.not.i.not, label %38, label %39

38:                                               ; preds = %33
  call void @llvm.lifetime.end.p0(i64 168, ptr nonnull %4) #8
  call void @llvm.lifetime.end.p0(i64 24, ptr nonnull %3) #8
  call void @llvm.lifetime.end.p0(i64 24, ptr nonnull %2) #8
  call void @PQclear(ptr noundef nonnull %14) #8
  br label %.critedge

39:                                               ; preds = %33
  call void @initPQExpBuffer(ptr noundef nonnull %3) #8
  call void (ptr, ptr, ...) @printfPQExpBuffer(ptr noundef nonnull %3, ptr noundef nonnull @.str.911, ptr noundef %34) #8
  %40 = load ptr, ptr %3, align 8
  store ptr %40, ptr %20, align 8
  store i8 1, ptr %21, align 8
  %41 = load ptr, ptr getelementptr inbounds nuw (i8, ptr @pset, i64 16), align 8
  %42 = load ptr, ptr getelementptr inbounds nuw (i8, ptr @pset, i64 376), align 8
  call void @printQuery(ptr noundef nonnull %37, ptr noundef nonnull %4, ptr noundef %41, i1 noundef zeroext false, ptr noundef %42) #8
  call void @termPQExpBuffer(ptr noundef nonnull %3) #8
  call void @PQclear(ptr noundef nonnull %37) #8
  call void @llvm.lifetime.end.p0(i64 168, ptr nonnull %4) #8
  call void @llvm.lifetime.end.p0(i64 24, ptr nonnull %3) #8
  call void @llvm.lifetime.end.p0(i64 24, ptr nonnull %2) #8
  %43 = load volatile i32, ptr @cancel_pressed, align 4
  %.not23 = icmp eq i32 %43, 0
  br i1 %.not23, label %29, label %44

44:                                               ; preds = %39
  call void @PQclear(ptr noundef nonnull %14) #8
  br label %.critedge

._crit_edge:                                      ; preds = %29, %.preheader
  call void @PQclear(ptr noundef nonnull %14) #8
  br label %.critedge

.critedge:                                        ; preds = %44, %38, %12, %._crit_edge, %28, %11
  %.0 = phi i1 [ false, %28 ], [ true, %._crit_edge ], [ false, %11 ], [ false, %12 ], [ false, %38 ], [ false, %44 ]
  call void @llvm.lifetime.end.p0(i64 24, ptr nonnull %7) #8
  ret i1 %.0
}